target datalayout = "e-m:e-p270:32:32-p271:32:32-p272:64:64-i64:64-i128:128-f80:128-n8:16:32:64-S128"
target triple = "x86_64-unknown-linux-gnu"

%"class.std::__shared_count" = type { ptr }
%"class.std::shared_ptr.40" = type { %"class.std::__shared_ptr.41" }
%"class.std::__shared_ptr.41" = type { ptr, %"class.std::__shared_count" }
%"class.std::shared_ptr.83" = type { %"class.std::__shared_ptr.84" }
%"class.std::__shared_ptr.84" = type { ptr, %"class.std::__shared_count" }
%"class.std::optional.75" = type { %"struct.std::_Optional_base.76" }
%"struct.std::_Optional_base.76" = type { %"struct.std::_Optional_payload.78" }
%"struct.std::_Optional_payload.78" = type { %"struct.std::_Optional_payload_base.base.80", [7 x i8] }
%"struct.std::_Optional_payload_base.base.80" = type <{ %"union.std::_Optional_payload_base<long>::_Storage", i8 }>
%"union.std::_Optional_payload_base<long>::_Storage" = type { i64 }
%"class.facebook::velox::window::prestosql::(anonymous namespace)::NtileFunction" = type { %"class.facebook::velox::exec::WindowFunction", %"class.std::optional.67", %"class.std::optional.75", i8, %"struct.facebook::velox::window::prestosql::(anonymous namespace)::NtileFunction::BucketMetrics", ptr, i64, i64, %"class.std::shared_ptr.83", ptr }
%"class.facebook::velox::exec::WindowFunction" = type { ptr, %"class.std::shared_ptr.40", ptr, ptr, %"class.facebook::velox::SelectivityVector" }
%"class.facebook::velox::SelectivityVector" = type <{ %"class.std::vector.59", i32, i32, i32, %"class.std::optional.61", [2 x i8] }>
%"class.std::vector.59" = type { %"struct.std::_Vector_base.60" }
%"struct.std::_Vector_base.60" = type { %"struct.std::_Vector_base<unsigned long, std::allocator<unsigned long>>::_Vector_impl" }
%"struct.std::_Vector_base<unsigned long, std::allocator<unsigned long>>::_Vector_impl" = type { %"struct.std::_Vector_base<unsigned long, std::allocator<unsigned long>>::_Vector_impl_data" }
%"struct.std::_Vector_base<unsigned long, std::allocator<unsigned long>>::_Vector_impl_data" = type { ptr, ptr, ptr }
%"class.std::optional.61" = type { %"struct.std::_Optional_base.62" }
%"struct.std::_Optional_base.62" = type { %"struct.std::_Optional_payload.64" }
%"struct.std::_Optional_payload.64" = type { %"struct.std::_Optional_payload_base.65" }
%"struct.std::_Optional_payload_base.65" = type { %"union.std::_Optional_payload_base<bool>::_Storage", i8 }
%"union.std::_Optional_payload_base<bool>::_Storage" = type { %"struct.std::_Optional_payload_base<bool>::_Empty_byte" }
%"struct.std::_Optional_payload_base<bool>::_Empty_byte" = type { i8 }
%"class.std::optional.67" = type { %"struct.std::_Optional_base.68" }
%"struct.std::_Optional_base.68" = type { %"struct.std::_Optional_payload.70" }
%"struct.std::_Optional_payload.70" = type { %"struct.std::_Optional_payload_base.base.72", [3 x i8] }
%"struct.std::_Optional_payload_base.base.72" = type <{ %"union.std::_Optional_payload_base<unsigned int>::_Storage", i8 }>
%"union.std::_Optional_payload_base<unsigned int>::_Storage" = type { i32 }
%"struct.facebook::velox::window::prestosql::(anonymous namespace)::NtileFunction::BucketMetrics" = type { i64, i64, i64 }
%"struct.std::_Optional_payload_base.79" = type <{ %"union.std::_Optional_payload_base<long>::_Storage", i8, [7 x i8] }>
%"class.facebook::velox::exec::WindowPartition" = type { ptr, %"class.folly::Range", %"class.std::vector.107", %"class.std::vector.112" }
%"class.folly::Range" = type { ptr, ptr }
%"class.std::vector.107" = type { %"struct.std::_Vector_base.108" }
%"struct.std::_Vector_base.108" = type { %"struct.std::_Vector_base<facebook::velox::exec::RowColumn, std::allocator<facebook::velox::exec::RowColumn>>::_Vector_impl" }
%"struct.std::_Vector_base<facebook::velox::exec::RowColumn, std::allocator<facebook::velox::exec::RowColumn>>::_Vector_impl" = type { %"struct.std::_Vector_base<facebook::velox::exec::RowColumn, std::allocator<facebook::velox::exec::RowColumn>>::_Vector_impl_data" }
%"struct.std::_Vector_base<facebook::velox::exec::RowColumn, std::allocator<facebook::velox::exec::RowColumn>>::_Vector_impl_data" = type { ptr, ptr, ptr }
%"class.std::vector.112" = type { %"struct.std::_Vector_base.113" }
%"struct.std::_Vector_base.113" = type { %"struct.std::_Vector_base<std::pair<unsigned int, facebook::velox::core::SortOrder>, std::allocator<std::pair<unsigned int, facebook::velox::core::SortOrder>>>::_Vector_impl" }
%"struct.std::_Vector_base<std::pair<unsigned int, facebook::velox::core::SortOrder>, std::allocator<std::pair<unsigned int, facebook::velox::core::SortOrder>>>::_Vector_impl" = type { %"struct.std::_Vector_base<std::pair<unsigned int, facebook::velox::core::SortOrder>, std::allocator<std::pair<unsigned int, facebook::velox::core::SortOrder>>>::_Vector_impl_data" }
%"struct.std::_Vector_base<std::pair<unsigned int, facebook::velox::core::SortOrder>, std::allocator<std::pair<unsigned int, facebook::velox::core::SortOrder>>>::_Vector_impl_data" = type { ptr, ptr, ptr }

@_ZTISt19bad_optional_access = linkonce_odr constant { ptr, ptr, ptr } { ptr getelementptr inbounds (ptr, ptr @_ZTVN10__cxxabiv120__si_class_type_infoE, i64 2), ptr @_ZTSSt19bad_optional_access, ptr @_ZTISt9exception }, comdat, align 8
@_ZTVSt19bad_optional_access = linkonce_odr unnamed_addr constant { [5 x ptr] } { [5 x ptr] [ptr null, ptr @_ZTISt19bad_optional_access, ptr @_ZNSt19bad_optional_accessD2Ev, ptr @_ZNSt19bad_optional_accessD0Ev, ptr @_ZNKSt19bad_optional_access4whatEv] }, comdat, align 8
@_ZTVSt9exception = external unnamed_addr constant { [5 x ptr] }, align 8

; Function Attrs: mustprogress nounwind uwtable
define linkonce_odr void @_ZNSt9exceptionC2Ev(ptr noundef nonnull align 8 dereferenceable(8) %this) unnamed_addr #5 comdat align 2 {
entry:
  %this.addr = alloca ptr, align 8
  store ptr %this, ptr %this.addr, align 8
  %this1 = load ptr, ptr %this.addr, align 8
  store ptr getelementptr inbounds ({ [5 x ptr] }, ptr @_ZTVSt9exception, i32 0, i32 0, i32 2), ptr %this1, align 8
  ret void
}

; Function Attrs: mustprogress nounwind uwtable
define linkonce_odr void @_ZNSt19bad_optional_accessC2Ev(ptr noundef nonnull align 8 dereferenceable(8) %this) unnamed_addr #5 comdat align 2 {
entry:
  %this.addr = alloca ptr, align 8
  store ptr %this, ptr %this.addr, align 8
  %this1 = load ptr, ptr %this.addr, align 8
  call void @_ZNSt9exceptionC2Ev(ptr noundef nonnull align 8 dereferenceable(8) %this1) #3
  store ptr getelementptr inbounds ({ [5 x ptr] }, ptr @_ZTVSt19bad_optional_access, i32 0, i32 0, i32 2), ptr %this1, align 8
  ret void
}

; Function Attrs: mustprogress nounwind uwtable
define linkonce_odr noundef nonnull align 8 dereferenceable(8) ptr @_ZNSt22_Optional_payload_baseIlE6_M_getEv(ptr noundef nonnull align 8 dereferenceable(9) %this) #5 comdat align 2 {
entry:
  %this.addr = alloca ptr, align 8
  store ptr %this, ptr %this.addr, align 8
  %this1 = load ptr, ptr %this.addr, align 8
  %_M_payload = getelementptr inbounds %"struct.std::_Optional_payload_base.79", ptr %this1, i32 0, i32 0
  ret ptr %_M_payload
}

; Function Attrs: mustprogress noreturn uwtable
define linkonce_odr void @_ZSt27__throw_bad_optional_accessv() #14 comdat {
entry:
  %exception = call ptr @__cxa_allocate_exception(i64 8) #3
  call void @llvm.memset.p0.i64(ptr align 16 %exception, i8 0, i64 8, i1 false)
  call void @_ZNSt19bad_optional_accessC2Ev(ptr noundef nonnull align 8 dereferenceable(8) %exception) #3
  call void @__cxa_throw(ptr %exception, ptr @_ZTISt19bad_optional_access, ptr @_ZNSt19bad_optional_accessD2Ev) #16
  unreachable
}

; Function Attrs: mustprogress nounwind uwtable
define linkonce_odr noundef nonnull align 8 dereferenceable(8) ptr @_ZNSt19_Optional_base_implIlSt14_Optional_baseIlLb1ELb1EEE6_M_getEv(ptr noundef nonnull align 1 dereferenceable(1) %this) #5 comdat align 2 {
entry:
  %this.addr = alloca ptr, align 8
  store ptr %this, ptr %this.addr, align 8
  %this1 = load ptr, ptr %this.addr, align 8
  br label %do.body

do.body:                                          ; preds = %entry
  br label %do.cond

do.cond:                                          ; preds = %do.body
  br label %do.end

do.end:                                           ; preds = %do.cond
  %_M_payload = getelementptr inbounds %"struct.std::_Optional_base.76", ptr %this1, i32 0, i32 0
  %call = call noundef nonnull align 8 dereferenceable(8) ptr @_ZNSt22_Optional_payload_baseIlE6_M_getEv(ptr noundef nonnull align 8 dereferenceable(9) %_M_payload) #3
  ret ptr %call
}

; Function Attrs: mustprogress nounwind uwtable
define linkonce_odr noundef zeroext i1 @_ZNKSt19_Optional_base_implIlSt14_Optional_baseIlLb1ELb1EEE13_M_is_engagedEv(ptr noundef nonnull align 1 dereferenceable(1) %this) #5 comdat align 2 {
entry:
  %this.addr = alloca ptr, align 8
  store ptr %this, ptr %this.addr, align 8
  %this1 = load ptr, ptr %this.addr, align 8
  %_M_payload = getelementptr inbounds %"struct.std::_Optional_base.76", ptr %this1, i32 0, i32 0
  %_M_engaged = getelementptr inbounds %"struct.std::_Optional_payload_base.79", ptr %_M_payload, i32 0, i32 1
  %0 = load i8, ptr %_M_engaged, align 8
  %tobool = trunc i8 %0 to i1
  ret i1 %tobool
}

; Function Attrs: mustprogress nounwind uwtable
define linkonce_odr noundef i64 @_ZNK5folly5RangeIPPcE4sizeEv(ptr noundef nonnull align 8 dereferenceable(16) %this) #5 comdat align 2 {
entry:
  %this.addr = alloca ptr, align 8
  store ptr %this, ptr %this.addr, align 8
  %this1 = load ptr, ptr %this.addr, align 8
  %e_ = getelementptr inbounds %"class.folly::Range", ptr %this1, i32 0, i32 1
  %0 = load ptr, ptr %e_, align 8
  %b_ = getelementptr inbounds %"class.folly::Range", ptr %this1, i32 0, i32 0
  %1 = load ptr, ptr %b_, align 8
  %sub.ptr.lhs.cast = ptrtoint ptr %0 to i64
  %sub.ptr.rhs.cast = ptrtoint ptr %1 to i64
  %sub.ptr.sub = sub i64 %sub.ptr.lhs.cast, %sub.ptr.rhs.cast
  %sub.ptr.div = sdiv exact i64 %sub.ptr.sub, 8
  ret i64 %sub.ptr.div
}

; Function Attrs: mustprogress nounwind uwtable
define internal void @_ZNK8facebook5velox6window9prestosql12_GLOBAL__N_113NtileFunction20computeBucketMetricsEl(ptr noalias sret(%"struct.facebook::velox::window::prestosql::(anonymous namespace)::NtileFunction::BucketMetrics") align 8 %agg.result, ptr noundef nonnull align 8 dereferenceable(184) %this, i64 noundef %numBuckets) #5 align 2 {
entry:
  %this.addr = alloca ptr, align 8
  %numBuckets.addr = alloca i64, align 8
  %rowsPerBucket = alloca i64, align 8
  %bucketsWithExtraRow = alloca i64, align 8
  %extraBucketsBoundary = alloca i64, align 8
  store ptr %this, ptr %this.addr, align 8
  store i64 %numBuckets, ptr %numBuckets.addr, align 8
  %this1 = load ptr, ptr %this.addr, align 8
  %numPartitionRows_ = getelementptr inbounds %"class.facebook::velox::window::prestosql::(anonymous namespace)::NtileFunction", ptr %this1, i32 0, i32 6
  %0 = load i64, ptr %numPartitionRows_, align 8
  %1 = load i64, ptr %numBuckets.addr, align 8
  %div = sdiv i64 %0, %1
  store i64 %div, ptr %rowsPerBucket, align 8
  %numPartitionRows_2 = getelementptr inbounds %"class.facebook::velox::window::prestosql::(anonymous namespace)::NtileFunction", ptr %this1, i32 0, i32 6
  %2 = load i64, ptr %numPartitionRows_2, align 8
  %3 = load i64, ptr %numBuckets.addr, align 8
  %rem = srem i64 %2, %3
  store i64 %rem, ptr %bucketsWithExtraRow, align 8
  %4 = load i64, ptr %rowsPerBucket, align 8
  %add = add nsw i64 %4, 1
  %5 = load i64, ptr %bucketsWithExtraRow, align 8
  %mul = mul nsw i64 %add, %5
  store i64 %mul, ptr %extraBucketsBoundary, align 8
  %rowsPerBucket3 = getelementptr inbounds %"struct.facebook::velox::window::prestosql::(anonymous namespace)::NtileFunction::BucketMetrics", ptr %agg.result, i32 0, i32 0
  %6 = load i64, ptr %rowsPerBucket, align 8
  store i64 %6, ptr %rowsPerBucket3, align 8
  %bucketsWithExtraRow4 = getelementptr inbounds %"struct.facebook::velox::window::prestosql::(anonymous namespace)::NtileFunction::BucketMetrics", ptr %agg.result, i32 0, i32 1
  %7 = load i64, ptr %bucketsWithExtraRow, align 8
  store i64 %7, ptr %bucketsWithExtraRow4, align 8
  %extraBucketsBoundary5 = getelementptr inbounds %"struct.facebook::velox::window::prestosql::(anonymous namespace)::NtileFunction::BucketMetrics", ptr %agg.result, i32 0, i32 2
  %8 = load i64, ptr %extraBucketsBoundary, align 8
  store i64 %8, ptr %extraBucketsBoundary5, align 8
  ret void
}

; Function Attrs: mustprogress uwtable
define linkonce_odr noundef nonnull align 8 dereferenceable(8) ptr @_ZNRSt8optionalIlE5valueEv(ptr noundef nonnull align 8 dereferenceable(16) %this) #2 comdat align 2 {
entry:
  %this.addr = alloca ptr, align 8
  store ptr %this, ptr %this.addr, align 8
  %this1 = load ptr, ptr %this.addr, align 8
  %call = call noundef zeroext i1 @_ZNKSt19_Optional_base_implIlSt14_Optional_baseIlLb1ELb1EEE13_M_is_engagedEv(ptr noundef nonnull align 1 dereferenceable(1) %this1) #3
  br i1 %call, label %if.then, label %if.end

if.then:                                          ; preds = %entry
  %call2 = call noundef nonnull align 8 dereferenceable(8) ptr @_ZNSt19_Optional_base_implIlSt14_Optional_baseIlLb1ELb1EEE6_M_getEv(ptr noundef nonnull align 1 dereferenceable(1) %this1) #3
  ret ptr %call2

if.end:                                           ; preds = %entry
  call void @_ZSt27__throw_bad_optional_accessv() #16
  unreachable
}

; Function Attrs: mustprogress nounwind uwtable
define linkonce_odr noundef zeroext i1 @_ZNKSt8optionalIlE9has_valueEv(ptr noundef nonnull align 8 dereferenceable(16) %this) #5 comdat align 2 {
entry:
  %this.addr = alloca ptr, align 8
  store ptr %this, ptr %this.addr, align 8
  %this1 = load ptr, ptr %this.addr, align 8
  %call = call noundef zeroext i1 @_ZNKSt19_Optional_base_implIlSt14_Optional_baseIlLb1ELb1EEE13_M_is_engagedEv(ptr noundef nonnull align 1 dereferenceable(1) %this1) #3
  ret i1 %call
}

; Function Attrs: mustprogress uwtable
define linkonce_odr noundef i32 @_ZNK8facebook5velox4exec15WindowPartition7numRowsEv(ptr noundef nonnull align 8 dereferenceable(72) %this) #2 comdat align 2 {
entry:
  %this.addr = alloca ptr, align 8
  store ptr %this, ptr %this.addr, align 8
  %this1 = load ptr, ptr %this.addr, align 8
  %partition_ = getelementptr inbounds %"class.facebook::velox::exec::WindowPartition", ptr %this1, i32 0, i32 1
  %call = call noundef i64 @_ZNK5folly5RangeIPPcE4sizeEv(ptr noundef nonnull align 8 dereferenceable(16) %partition_)
  %conv = trunc i64 %call to i32
  ret i32 %conv
}

; Function Attrs: mustprogress uwtable
define internal void @_ZN8facebook5velox6window9prestosql12_GLOBAL__N_113NtileFunction14resetPartitionEPKNS0_4exec15WindowPartitionE(ptr noundef nonnull align 8 dereferenceable(184) %this, ptr noundef %partition) unnamed_addr #2 align 2 {
entry:
  %this.addr = alloca ptr, align 8
  %partition.addr = alloca ptr, align 8
  %numBuckets = alloca i64, align 8
  %ref.tmp = alloca %"struct.facebook::velox::window::prestosql::(anonymous namespace)::NtileFunction::BucketMetrics", align 8
  store ptr %this, ptr %this.addr, align 8
  store ptr %partition, ptr %partition.addr, align 8
  %this1 = load ptr, ptr %this.addr, align 8
  %0 = load ptr, ptr %partition.addr, align 8
  %partition_ = getelementptr inbounds %"class.facebook::velox::window::prestosql::(anonymous namespace)::NtileFunction", ptr %this1, i32 0, i32 5
  store ptr %0, ptr %partition_, align 8
  %partitionOffset_ = getelementptr inbounds %"class.facebook::velox::window::prestosql::(anonymous namespace)::NtileFunction", ptr %this1, i32 0, i32 7
  store i64 0, ptr %partitionOffset_, align 8
  %1 = load ptr, ptr %partition.addr, align 8
  %call = call noundef i32 @_ZNK8facebook5velox4exec15WindowPartition7numRowsEv(ptr noundef nonnull align 8 dereferenceable(72) %1)
  %conv = sext i32 %call to i64
  %numPartitionRows_ = getelementptr inbounds %"class.facebook::velox::window::prestosql::(anonymous namespace)::NtileFunction", ptr %this1, i32 0, i32 6
  store i64 %conv, ptr %numPartitionRows_, align 8
  %numFixedBuckets_ = getelementptr inbounds %"class.facebook::velox::window::prestosql::(anonymous namespace)::NtileFunction", ptr %this1, i32 0, i32 2
  %call2 = call noundef zeroext i1 @_ZNKSt8optionalIlE9has_valueEv(ptr noundef nonnull align 8 dereferenceable(16) %numFixedBuckets_) #3
  br i1 %call2, label %if.then, label %if.end8

if.then:                                          ; preds = %entry
  %numFixedBuckets_3 = getelementptr inbounds %"class.facebook::velox::window::prestosql::(anonymous namespace)::NtileFunction", ptr %this1, i32 0, i32 2
  %call4 = call noundef nonnull align 8 dereferenceable(8) ptr @_ZNRSt8optionalIlE5valueEv(ptr noundef nonnull align 8 dereferenceable(16) %numFixedBuckets_3)
  %2 = load i64, ptr %call4, align 8
  store i64 %2, ptr %numBuckets, align 8
  %3 = load i64, ptr %numBuckets, align 8
  %numPartitionRows_5 = getelementptr inbounds %"class.facebook::velox::window::prestosql::(anonymous namespace)::NtileFunction", ptr %this1, i32 0, i32 6
  %4 = load i64, ptr %numPartitionRows_5, align 8
  %cmp = icmp sgt i64 %3, %4
  %fixedBucketsMoreThanPartition_ = getelementptr inbounds %"class.facebook::velox::window::prestosql::(anonymous namespace)::NtileFunction", ptr %this1, i32 0, i32 3
  %frombool = zext i1 %cmp to i8
  store i8 %frombool, ptr %fixedBucketsMoreThanPartition_, align 8
  %fixedBucketsMoreThanPartition_6 = getelementptr inbounds %"class.facebook::velox::window::prestosql::(anonymous namespace)::NtileFunction", ptr %this1, i32 0, i32 3
  %5 = load i8, ptr %fixedBucketsMoreThanPartition_6, align 8
  %tobool = trunc i8 %5 to i1
  br i1 %tobool, label %if.end, label %if.then7

if.then7:                                         ; preds = %if.then
  %6 = load i64, ptr %numBuckets, align 8
  call void @_ZNK8facebook5velox6window9prestosql12_GLOBAL__N_113NtileFunction20computeBucketMetricsEl(ptr sret(%"struct.facebook::velox::window::prestosql::(anonymous namespace)::NtileFunction::BucketMetrics") align 8 %ref.tmp, ptr noundef nonnull align 8 dereferenceable(184) %this1, i64 noundef %6)
  %fixedBucketMetrics_ = getelementptr inbounds %"class.facebook::velox::window::prestosql::(anonymous namespace)::NtileFunction", ptr %this1, i32 0, i32 4
  call void @llvm.memcpy.p0.p0.i64(ptr align 8 %fixedBucketMetrics_, ptr align 8 %ref.tmp, i64 24, i1 false)
  br label %if.end

if.end:                                           ; preds = %if.then7, %if.then
  br label %if.end8

if.end8:                                          ; preds = %if.end, %entry
  ret void
}