; Function Attrs: mustprogress nofree norecurse nosync nounwind willreturn memory(argmem: readwrite) uwtable
define internal void @_ZN8facebook5velox6window9prestosql12_GLOBAL__N_113NtileFunction14resetPartitionEPKNS0_4exec15WindowPartitionE(ptr nocapture noundef nonnull align 8 dereferenceable(184) %this, ptr noundef %partition) unnamed_addr #12 align 2 {
entry:
  %partition_ = getelementptr inbounds i8, ptr %this, i64 136
  store ptr %partition, ptr %partition_, align 8
  %partitionOffset_ = getelementptr inbounds i8, ptr %this, i64 152
  store i64 0, ptr %partitionOffset_, align 8
  %partition_.i = getelementptr inbounds i8, ptr %partition, i64 8
  %e_.i.i = getelementptr inbounds i8, ptr %partition, i64 16
  %0 = load ptr, ptr %e_.i.i, align 8
  %1 = load ptr, ptr %partition_.i, align 8
  %sub.ptr.lhs.cast.i.i = ptrtoint ptr %0 to i64
  %sub.ptr.rhs.cast.i.i = ptrtoint ptr %1 to i64
  %sub.ptr.sub.i.i = sub i64 %sub.ptr.lhs.cast.i.i, %sub.ptr.rhs.cast.i.i
  %sext = shl i64 %sub.ptr.sub.i.i, 29
  %conv = ashr i64 %sext, 32
  %numPartitionRows_ = getelementptr inbounds i8, ptr %this, i64 144
  store i64 %conv, ptr %numPartitionRows_, align 8
  %_M_engaged.i.i = getelementptr inbounds i8, ptr %this, i64 96
  %2 = load i8, ptr %_M_engaged.i.i, align 8
  %3 = and i8 %2, 1
  %tobool.i.i.not = icmp eq i8 %3, 0
  br i1 %tobool.i.i.not, label %if.end8, label %_ZNRSt8optionalIlE5valueEv.exit

_ZNRSt8optionalIlE5valueEv.exit:                  ; preds = %entry
  %numFixedBuckets_ = getelementptr inbounds i8, ptr %this, i64 88
  %4 = load i64, ptr %numFixedBuckets_, align 8
  %cmp = icmp sgt i64 %4, %conv
  %fixedBucketsMoreThanPartition_ = getelementptr inbounds i8, ptr %this, i64 104
  %frombool = zext i1 %cmp to i8
  store i8 %frombool, ptr %fixedBucketsMoreThanPartition_, align 8
  br i1 %cmp, label %if.end8, label %if.then7

if.then7:                                         ; preds = %_ZNRSt8optionalIlE5valueEv.exit
  %div.i = sdiv i64 %conv, %4
  %rem.i = srem i64 %conv, %4
  %add.i = add nsw i64 %div.i, 1
  %mul.i = mul nsw i64 %add.i, %rem.i
  %fixedBucketMetrics_ = getelementptr inbounds i8, ptr %this, i64 112
  store i64 %div.i, ptr %fixedBucketMetrics_, align 8
  %ref.tmp.sroa.2.0.fixedBucketMetrics_.sroa_idx = getelementptr inbounds i8, ptr %this, i64 120
  store i64 %rem.i, ptr %ref.tmp.sroa.2.0.fixedBucketMetrics_.sroa_idx, align 8
  %ref.tmp.sroa.3.0.fixedBucketMetrics_.sroa_idx = getelementptr inbounds i8, ptr %this, i64 128
  store i64 %mul.i, ptr %ref.tmp.sroa.3.0.fixedBucketMetrics_.sroa_idx, align 8
  br label %if.end8

if.end8:                                          ; preds = %_ZNRSt8optionalIlE5valueEv.exit, %if.then7, %entry
  ret void
}